; Listing generated by Microsoft (R) Optimizing Compiler Version 19.38.33139.0 

	TITLE	D:\DEV\GameGuruConverter - reduced\GameGuru Core\Dark Basic Public Shared\Dark Basic Pro SDK\DarkSDKMore\BlitzTerrain\Release\code-from-dbp.obj
	.686P
	.XMM
	include listing.inc
	.model	flat

INCLUDELIB LIBCMT
INCLUDELIB OLDNAMES

PUBLIC	___use_char_max
PUBLIC	?DBPRO_SetMeshRenderStates@@YA_NPAUsMesh@@@Z	; DBPRO_SetMeshRenderStates
PUBLIC	?DBPRO_ApplyEffect@@YAXPAUsMesh@@PAUtagCameraData@@@Z ; DBPRO_ApplyEffect
EXTRN	___do_unsigned_char_lconv_initialization:DWORD
; Function compile flags: /Ogtp
;	COMDAT ?DBPRO_ApplyEffect@@YAXPAUsMesh@@PAUtagCameraData@@@Z
_TEXT	SEGMENT
_pMesh$ = 8						; size = 4
_m_Camera_Ptr$ = 12					; size = 4
?DBPRO_ApplyEffect@@YAXPAUsMesh@@PAUtagCameraData@@@Z PROC ; DBPRO_ApplyEffect, COMDAT
; File D:\DEV\GameGuruConverter - reduced\GameGuru Core\Dark Basic Public Shared\Dark Basic Pro SDK\DarkSDKMore\BlitzTerrain\code-from-dbp.cpp
; Line 519
  00000	c2 00 00	 ret	 0
?DBPRO_ApplyEffect@@YAXPAUsMesh@@PAUtagCameraData@@@Z ENDP ; DBPRO_ApplyEffect
_TEXT	ENDS
; Function compile flags: /Ogtp
;	COMDAT ?DBPRO_SetMeshRenderStates@@YA_NPAUsMesh@@@Z
_TEXT	SEGMENT
_pMesh$ = 8						; size = 4
?DBPRO_SetMeshRenderStates@@YA_NPAUsMesh@@@Z PROC	; DBPRO_SetMeshRenderStates, COMDAT
; File D:\DEV\GameGuruConverter - reduced\GameGuru Core\Dark Basic Public Shared\Dark Basic Pro SDK\DarkSDKMore\BlitzTerrain\code-from-dbp.cpp
; Line 222
  00000	b0 01		 mov	 al, 1
; Line 223
  00002	c3		 ret	 0
?DBPRO_SetMeshRenderStates@@YA_NPAUsMesh@@@Z ENDP	; DBPRO_SetMeshRenderStates
_TEXT	ENDS
; Function compile flags: /Ogtp
;	COMDAT ___use_char_max
_TEXT	SEGMENT
___use_char_max PROC					; COMDAT
; File C:\Program Files (x86)\Windows Kits\10\Include\10.0.10150.0\ucrt\locale.h
; Line 66
  00000	a1 00 00 00 00	 mov	 eax, DWORD PTR ___do_unsigned_char_lconv_initialization
; Line 67
  00005	c3		 ret	 0
___use_char_max ENDP
_TEXT	ENDS
END
