; Listing generated by Microsoft (R) Optimizing Compiler Version 19.38.33139.0 

	TITLE	D:\DEV\GameGuruConverter - reduced\GameGuru Core\Dark Basic Public Shared\Dark Basic Pro SDK\DarkSDKMore\BlitzTerrain\Release\CreateObject.obj
	.686P
	.XMM
	include listing.inc
	.model	flat

INCLUDELIB LIBCMT
INCLUDELIB OLDNAMES

PUBLIC	??_H@YGXPAXIIP6EPAX0@Z@Z			; `vector constructor iterator'
PUBLIC	?BT_Intern_CreateBlankObject@@YAPAUsObject@@KK@Z ; BT_Intern_CreateBlankObject
PUBLIC	?BT_Intern_SetupMesh@@YAXPAUsMesh@@KKK@Z	; BT_Intern_SetupMesh
PUBLIC	?BT_Intern_FinnishObject@@YAXK@Z		; BT_Intern_FinnishObject
PUBLIC	??_C@_0N@EDEMNPPL@BlitzTerrain@			; `string'
EXTRN	?SetupMeshFVFData@@YA_NPAUsMesh@@KKK_N@Z:PROC	; SetupMeshFVFData
EXTRN	?SetNewObjectFinalProperties@@YA_NHM@Z:PROC	; SetNewObjectFinalProperties
EXTRN	?CreateNewObject@@YA_NHPADH@Z:PROC		; CreateNewObject
EXTRN	?TextureObject@@YAXHH@Z:PROC			; TextureObject
EXTRN	?GetObjectData@@YAPAUsObject@@H@Z:PROC		; GetObjectData
EXTRN	__fltused:DWORD
;	COMDAT ??_C@_0N@EDEMNPPL@BlitzTerrain@
CONST	SEGMENT
??_C@_0N@EDEMNPPL@BlitzTerrain@ DB 'BlitzTerrain', 00H	; `string'
CONST	ENDS
; Function compile flags: /Ogtp
;	COMDAT ?BT_Intern_FinnishObject@@YAXK@Z
_TEXT	SEGMENT
_ObjectID$ = 8						; size = 4
?BT_Intern_FinnishObject@@YAXK@Z PROC			; BT_Intern_FinnishObject, COMDAT
; File D:\DEV\GameGuruConverter - reduced\GameGuru Core\Dark Basic Public Shared\Dark Basic Pro SDK\DarkSDKMore\BlitzTerrain\CreateObject.cpp
; Line 24
  00000	55		 push	 ebp
  00001	8b ec		 mov	 ebp, esp
; Line 25
  00003	51		 push	 ecx
  00004	c7 04 24 00 00
	00 00		 mov	 DWORD PTR [esp], 0
  0000b	ff 75 08	 push	 DWORD PTR _ObjectID$[ebp]
  0000e	e8 00 00 00 00	 call	 ?SetNewObjectFinalProperties@@YA_NHM@Z ; SetNewObjectFinalProperties
; Line 26
  00013	6a 00		 push	 0
  00015	ff 75 08	 push	 DWORD PTR _ObjectID$[ebp]
  00018	e8 00 00 00 00	 call	 ?TextureObject@@YAXHH@Z	; TextureObject
  0001d	83 c4 10	 add	 esp, 16			; 00000010H
; Line 28
  00020	5d		 pop	 ebp
  00021	c3		 ret	 0
?BT_Intern_FinnishObject@@YAXK@Z ENDP			; BT_Intern_FinnishObject
_TEXT	ENDS
; Function compile flags: /Ogtp
;	COMDAT ?BT_Intern_SetupMesh@@YAXPAUsMesh@@KKK@Z
_TEXT	SEGMENT
_Mesh$ = 8						; size = 4
_VertexCount$ = 12					; size = 4
_IndexCount$ = 16					; size = 4
_Fvf$ = 20						; size = 4
?BT_Intern_SetupMesh@@YAXPAUsMesh@@KKK@Z PROC		; BT_Intern_SetupMesh, COMDAT
; File D:\DEV\GameGuruConverter - reduced\GameGuru Core\Dark Basic Public Shared\Dark Basic Pro SDK\DarkSDKMore\BlitzTerrain\CreateObject.cpp
; Line 15
  00000	55		 push	 ebp
  00001	8b ec		 mov	 ebp, esp
  00003	53		 push	 ebx
; Line 16
  00004	8b 5d 0c	 mov	 ebx, DWORD PTR _VertexCount$[ebp]
  00007	56		 push	 esi
  00008	8b 75 08	 mov	 esi, DWORD PTR _Mesh$[ebp]
  0000b	57		 push	 edi
  0000c	8b 7d 10	 mov	 edi, DWORD PTR _IndexCount$[ebp]
  0000f	6a 00		 push	 0
  00011	57		 push	 edi
  00012	53		 push	 ebx
  00013	ff 75 14	 push	 DWORD PTR _Fvf$[ebp]
  00016	56		 push	 esi
  00017	e8 00 00 00 00	 call	 ?SetupMeshFVFData@@YA_NPAUsMesh@@KKK_N@Z ; SetupMeshFVFData
  0001c	83 c4 14	 add	 esp, 20			; 00000014H
; Line 18
  0001f	89 5e 28	 mov	 DWORD PTR [esi+40], ebx
; Line 19
  00022	85 ff		 test	 edi, edi
  00024	c7 46 24 04 00
	00 00		 mov	 DWORD PTR [esi+36], 4
  0002b	b8 ab aa aa aa	 mov	 eax, -1431655765	; aaaaaaabH
  00030	0f 45 df	 cmovne	 ebx, edi
  00033	f7 e3		 mul	 ebx
  00035	5f		 pop	 edi
  00036	d1 ea		 shr	 edx, 1
  00038	89 56 2c	 mov	 DWORD PTR [esi+44], edx
  0003b	5e		 pop	 esi
  0003c	5b		 pop	 ebx
; Line 21
  0003d	5d		 pop	 ebp
  0003e	c3		 ret	 0
?BT_Intern_SetupMesh@@YAXPAUsMesh@@KKK@Z ENDP		; BT_Intern_SetupMesh
_TEXT	ENDS
; Function compile flags: /Ogtp
;	COMDAT ?BT_Intern_CreateBlankObject@@YAPAUsObject@@KK@Z
_TEXT	SEGMENT
_ObjectId$ = 8						; size = 4
_FrameCount$ = 12					; size = 4
?BT_Intern_CreateBlankObject@@YAPAUsObject@@KK@Z PROC	; BT_Intern_CreateBlankObject, COMDAT
; File D:\DEV\GameGuruConverter - reduced\GameGuru Core\Dark Basic Public Shared\Dark Basic Pro SDK\DarkSDKMore\BlitzTerrain\CreateObject.cpp
; Line 8
  00000	55		 push	 ebp
  00001	8b ec		 mov	 ebp, esp
; Line 9
  00003	ff 75 0c	 push	 DWORD PTR _FrameCount$[ebp]
  00006	68 00 00 00 00	 push	 OFFSET ??_C@_0N@EDEMNPPL@BlitzTerrain@
  0000b	ff 75 08	 push	 DWORD PTR _ObjectId$[ebp]
  0000e	e8 00 00 00 00	 call	 ?CreateNewObject@@YA_NHPADH@Z ; CreateNewObject
; Line 10
  00013	ff 75 08	 push	 DWORD PTR _ObjectId$[ebp]
  00016	e8 00 00 00 00	 call	 ?GetObjectData@@YAPAUsObject@@H@Z ; GetObjectData
  0001b	83 c4 10	 add	 esp, 16			; 00000010H
; Line 12
  0001e	5d		 pop	 ebp
  0001f	c3		 ret	 0
?BT_Intern_CreateBlankObject@@YAPAUsObject@@KK@Z ENDP	; BT_Intern_CreateBlankObject
_TEXT	ENDS
; Function compile flags: /Ogtp
;	COMDAT ??_H@YGXPAXIIP6EPAX0@Z@Z
_TEXT	SEGMENT
___t$ = 8						; size = 4
___s$ = 12						; size = 4
___n$ = 16						; size = 4
___f$ = 20						; size = 4
??_H@YGXPAXIIP6EPAX0@Z@Z PROC				; `vector constructor iterator', COMDAT
  00000	55		 push	 ebp
  00001	8b ec		 mov	 ebp, esp
  00003	56		 push	 esi
  00004	8b 75 10	 mov	 esi, DWORD PTR ___n$[ebp]
  00007	85 f6		 test	 esi, esi
  00009	74 16		 je	 SHORT $LN6@vector
  0000b	53		 push	 ebx
  0000c	8b 5d 14	 mov	 ebx, DWORD PTR ___f$[ebp]
  0000f	57		 push	 edi
  00010	8b 7d 08	 mov	 edi, DWORD PTR ___t$[ebp]
$LL2@vector:
  00013	8b cf		 mov	 ecx, edi
  00015	ff d3		 call	 ebx
  00017	03 7d 0c	 add	 edi, DWORD PTR ___s$[ebp]
  0001a	83 ee 01	 sub	 esi, 1
  0001d	75 f4		 jne	 SHORT $LL2@vector
  0001f	5f		 pop	 edi
  00020	5b		 pop	 ebx
$LN6@vector:
  00021	5e		 pop	 esi
  00022	5d		 pop	 ebp
  00023	c2 10 00	 ret	 16			; 00000010H
??_H@YGXPAXIIP6EPAX0@Z@Z ENDP				; `vector constructor iterator'
_TEXT	ENDS
END
