; Listing generated by Microsoft (R) Optimizing Compiler Version 19.38.33139.0 

	TITLE	D:\DEV\GameGuruConverter - reduced\GameGuru Core\Dark Basic Public Shared\Dark Basic Pro SDK\DarkSDKMore\BlitzTerrain\Release\rttms.obj
	.686P
	.XMM
	include listing.inc
	.model	flat

INCLUDELIB LIBCMT
INCLUDELIB OLDNAMES

PUBLIC	?BT_RTTMS_UpdateHandlers@@3PAPAP6AXKKKGGPAM@ZA	; BT_RTTMS_UpdateHandlers
PUBLIC	?BT_RTTMS_UpdateHandlerCount@@3PAKA		; BT_RTTMS_UpdateHandlerCount
_BSS	SEGMENT
?BT_RTTMS_UpdateHandlers@@3PAPAP6AXKKKGGPAM@ZA DD 0ffH DUP (?) ; BT_RTTMS_UpdateHandlers
?BT_RTTMS_UpdateHandlerCount@@3PAKA DD 0ffH DUP (?)	; BT_RTTMS_UpdateHandlerCount
_BSS	ENDS
PUBLIC	___use_char_max
PUBLIC	?BT_RTTMS_AddUpdateHandler@@YAXKP6AXKKKGGPAM@Z@Z ; BT_RTTMS_AddUpdateHandler
PUBLIC	?BT_RTTMS_DeleteUpdateHandlers@@YAXK@Z		; BT_RTTMS_DeleteUpdateHandlers
PUBLIC	?BT_RTTMS_LockSectorVertexData@@YAPAXKKK@Z	; BT_RTTMS_LockSectorVertexData
PUBLIC	?BT_RTTMS_UnlockSectorVertexData@@YAXPAX@Z	; BT_RTTMS_UnlockSectorVertexData
PUBLIC	?BT_RTTMS_FindVertex@@YAGPAXGG@Z		; BT_RTTMS_FindVertex
PUBLIC	?BT_RTTMS_UnlockTerrain@@YAXPAUs_BT_terrain@@@Z	; BT_RTTMS_UnlockTerrain
EXTRN	_free:PROC
EXTRN	_malloc:PROC
EXTRN	_realloc:PROC
EXTRN	?BT_Intern_TerrainExist@@YA_NK@Z:PROC		; BT_Intern_TerrainExist
EXTRN	?DeleteMeshData@BT_QuadMap@@QAEXXZ:PROC		; BT_QuadMap::DeleteMeshData
EXTRN	?FillMeshData@BT_QuadMap@@QAEXPAUBT_RTTMS_STRUCT@@@Z:PROC ; BT_QuadMap::FillMeshData
EXTRN	?FindVertex@BT_QuadMap@@QAEGGG@Z:PROC		; BT_QuadMap::FindVertex
EXTRN	?BT_Intern_Error@@YAXH@Z:PROC			; BT_Intern_Error
EXTRN	___do_unsigned_char_lconv_initialization:DWORD
EXTRN	?BT_Main@@3Us_BT_main@@A:BYTE			; BT_Main
; Function compile flags: /Ogtp
;	COMDAT ?BT_RTTMS_UnlockTerrain@@YAXPAUs_BT_terrain@@@Z
_TEXT	SEGMENT
_RTTMSStruct$1$ = -40					; size = 4
_RTTMSStructInternals$1$ = -36				; size = 4
_EndVertex$1$ = -32					; size = 4
_LODLevelID$1$ = -28					; size = 4
_SectorID$1$ = -24					; size = 4
_StartVertex$1$ = -20					; size = 4
_Vertices$1$ = -16					; size = 4
_LODLevelPtr$1$ = -12					; size = 4
_Sector$1$ = -8						; size = 4
_LODLevel$1$ = -1					; size = 1
_TerrainPtr$ = 8					; size = 4
?BT_RTTMS_UnlockTerrain@@YAXPAUs_BT_terrain@@@Z PROC	; BT_RTTMS_UnlockTerrain, COMDAT
; File D:\DEV\GameGuruConverter - reduced\GameGuru Core\Dark Basic Public Shared\Dark Basic Pro SDK\DarkSDKMore\BlitzTerrain\rttms.cpp
; Line 120
  00000	55		 push	 ebp
  00001	8b ec		 mov	 ebp, esp
  00003	83 ec 28	 sub	 esp, 40			; 00000028H
; Line 121
  00006	8b 55 08	 mov	 edx, DWORD PTR _TerrainPtr$[ebp]
  00009	32 c0		 xor	 al, al
  0000b	88 45 ff	 mov	 BYTE PTR _LODLevel$1$[ebp], al
  0000e	38 42 32	 cmp	 BYTE PTR [edx+50], al
  00011	0f 86 13 01 00
	00		 jbe	 $LN3@BT_RTTMS_U
  00017	53		 push	 ebx
  00018	56		 push	 esi
  00019	57		 push	 edi
  0001a	66 0f 1f 44 00
	00		 npad	 6
$LL4@BT_RTTMS_U:
; Line 123
  00020	0f b6 c0	 movzx	 eax, al
; Line 124
  00023	33 f6		 xor	 esi, esi
  00025	89 75 f8	 mov	 DWORD PTR _Sector$1$[ebp], esi
  00028	8d 0c c0	 lea	 ecx, DWORD PTR [eax+eax*8]
  0002b	8b 42 44	 mov	 eax, DWORD PTR [edx+68]
  0002e	8d 3c 88	 lea	 edi, DWORD PTR [eax+ecx*4]
  00031	33 c0		 xor	 eax, eax
  00033	89 7d f4	 mov	 DWORD PTR _LODLevelPtr$1$[ebp], edi
  00036	66 3b 47 0a	 cmp	 ax, WORD PTR [edi+10]
  0003a	0f 83 d6 00 00
	00		 jae	 $LN2@BT_RTTMS_U
$LL7@BT_RTTMS_U:
; Line 126
  00040	0f b7 c6	 movzx	 eax, si
  00043	69 c0 94 00 00
	00		 imul	 eax, eax, 148
  00049	03 47 10	 add	 eax, DWORD PTR [edi+16]
; Line 127
  0004c	80 38 01	 cmp	 BYTE PTR [eax], 1
  0004f	0f 84 b0 00 00
	00		 je	 $LN5@BT_RTTMS_U
  00055	80 b8 81 00 00
	00 00		 cmp	 BYTE PTR [eax+129], 0
  0005c	0f 84 a3 00 00
	00		 je	 $LN5@BT_RTTMS_U
; Line 86
  00062	8b 88 84 00 00
	00		 mov	 ecx, DWORD PTR [eax+132]
  00068	89 4d d8	 mov	 DWORD PTR _RTTMSStruct$1$[ebp], ecx
; Line 87
  0006b	8b 59 10	 mov	 ebx, DWORD PTR [ecx+16]
  0006e	89 5d dc	 mov	 DWORD PTR _RTTMSStructInternals$1$[ebp], ebx
; Line 90
  00071	8b 43 0c	 mov	 eax, DWORD PTR [ebx+12]
  00074	c6 80 81 00 00
	00 00		 mov	 BYTE PTR [eax+129], 0
; Line 94
  0007b	80 79 08 01	 cmp	 BYTE PTR [ecx+8], 1
  0007f	75 68		 jne	 SHORT $LN16@BT_RTTMS_U
; Line 95
  00081	8b 41 04	 mov	 eax, DWORD PTR [ecx+4]
; Line 37
  00084	be 01 00 00 00	 mov	 esi, 1
; Line 95
  00089	8b 3b		 mov	 edi, DWORD PTR [ebx]
  0008b	0f b7 51 0c	 movzx	 edx, WORD PTR [ecx+12]
  0008f	89 45 f0	 mov	 DWORD PTR _Vertices$1$[ebp], eax
  00092	0f b7 41 0a	 movzx	 eax, WORD PTR [ecx+10]
  00096	89 45 ec	 mov	 DWORD PTR _StartVertex$1$[ebp], eax
  00099	8b 43 08	 mov	 eax, DWORD PTR [ebx+8]
  0009c	89 45 e8	 mov	 DWORD PTR _SectorID$1$[ebp], eax
  0009f	8b 43 04	 mov	 eax, DWORD PTR [ebx+4]
  000a2	89 55 e0	 mov	 DWORD PTR _EndVertex$1$[ebp], edx
  000a5	89 45 e4	 mov	 DWORD PTR _LODLevelID$1$[ebp], eax
; Line 37
  000a8	39 34 bd 00 00
	00 00		 cmp	 DWORD PTR ?BT_RTTMS_UpdateHandlerCount@@3PAKA[edi*4], esi
  000af	72 32		 jb	 SHORT $LN31@BT_RTTMS_U
  000b1	8b 5d f0	 mov	 ebx, DWORD PTR _Vertices$1$[ebp]
$LL17@BT_RTTMS_U:
; Line 38
  000b4	8b 04 bd 00 00
	00 00		 mov	 eax, DWORD PTR ?BT_RTTMS_UpdateHandlers@@3PAPAP6AXKKKGGPAM@ZA[edi*4]
  000bb	53		 push	 ebx
  000bc	52		 push	 edx
  000bd	ff 75 ec	 push	 DWORD PTR _StartVertex$1$[ebp]
  000c0	8b 44 b0 fc	 mov	 eax, DWORD PTR [eax+esi*4-4]
  000c4	ff 75 e8	 push	 DWORD PTR _SectorID$1$[ebp]
  000c7	ff 75 e4	 push	 DWORD PTR _LODLevelID$1$[ebp]
  000ca	57		 push	 edi
  000cb	ff d0		 call	 eax
  000cd	8b 55 e0	 mov	 edx, DWORD PTR _EndVertex$1$[ebp]
  000d0	46		 inc	 esi
  000d1	83 c4 18	 add	 esp, 24			; 00000018H
  000d4	3b 34 bd 00 00
	00 00		 cmp	 esi, DWORD PTR ?BT_RTTMS_UpdateHandlerCount@@3PAKA[edi*4]
  000db	76 d7		 jbe	 SHORT $LL17@BT_RTTMS_U
  000dd	8b 5d dc	 mov	 ebx, DWORD PTR _RTTMSStructInternals$1$[ebp]
; Line 37
  000e0	8b 4d d8	 mov	 ecx, DWORD PTR _RTTMSStruct$1$[ebp]
$LN31@BT_RTTMS_U:
; Line 99
  000e3	8b 7d f4	 mov	 edi, DWORD PTR _LODLevelPtr$1$[ebp]
  000e6	8b 75 f8	 mov	 esi, DWORD PTR _Sector$1$[ebp]
$LN16@BT_RTTMS_U:
  000e9	ff 71 04	 push	 DWORD PTR [ecx+4]
  000ec	e8 00 00 00 00	 call	 _free
  000f1	83 c4 04	 add	 esp, 4
; Line 102
  000f4	80 7b 10 01	 cmp	 BYTE PTR [ebx+16], 1
  000f8	75 0b		 jne	 SHORT $LN5@BT_RTTMS_U
; Line 104
  000fa	8b 4b 0c	 mov	 ecx, DWORD PTR [ebx+12]
  000fd	8b 49 18	 mov	 ecx, DWORD PTR [ecx+24]
  00100	e8 00 00 00 00	 call	 ?DeleteMeshData@BT_QuadMap@@QAEXXZ ; BT_QuadMap::DeleteMeshData
$LN5@BT_RTTMS_U:
; Line 124
  00105	46		 inc	 esi
  00106	89 75 f8	 mov	 DWORD PTR _Sector$1$[ebp], esi
  00109	66 3b 77 0a	 cmp	 si, WORD PTR [edi+10]
  0010d	0f 82 2d ff ff
	ff		 jb	 $LL7@BT_RTTMS_U
  00113	8b 55 08	 mov	 edx, DWORD PTR _TerrainPtr$[ebp]
$LN2@BT_RTTMS_U:
; Line 121
  00116	8a 45 ff	 mov	 al, BYTE PTR _LODLevel$1$[ebp]
  00119	fe c0		 inc	 al
  0011b	88 45 ff	 mov	 BYTE PTR _LODLevel$1$[ebp], al
  0011e	3a 42 32	 cmp	 al, BYTE PTR [edx+50]
  00121	0f 82 f9 fe ff
	ff		 jb	 $LL4@BT_RTTMS_U
  00127	5f		 pop	 edi
  00128	5e		 pop	 esi
  00129	5b		 pop	 ebx
$LN3@BT_RTTMS_U:
; Line 133
  0012a	8b e5		 mov	 esp, ebp
  0012c	5d		 pop	 ebp
  0012d	c3		 ret	 0
?BT_RTTMS_UnlockTerrain@@YAXPAUs_BT_terrain@@@Z ENDP	; BT_RTTMS_UnlockTerrain
_TEXT	ENDS
; Function compile flags: /Ogtp
;	COMDAT ?BT_RTTMS_FindVertex@@YAGPAXGG@Z
_TEXT	SEGMENT
_StructPtr$ = 8						; size = 4
_Vrow$ = 12						; size = 2
_Vcol$ = 16						; size = 2
?BT_RTTMS_FindVertex@@YAGPAXGG@Z PROC			; BT_RTTMS_FindVertex, COMDAT
; File D:\DEV\GameGuruConverter - reduced\GameGuru Core\Dark Basic Public Shared\Dark Basic Pro SDK\DarkSDKMore\BlitzTerrain\rttms.cpp
; Line 109
  00000	55		 push	 ebp
  00001	8b ec		 mov	 ebp, esp
; Line 112
  00003	8b 45 08	 mov	 eax, DWORD PTR _StructPtr$[ebp]
; Line 115
  00006	ff 75 10	 push	 DWORD PTR _Vcol$[ebp]
  00009	ff 75 0c	 push	 DWORD PTR _Vrow$[ebp]
  0000c	8b 48 10	 mov	 ecx, DWORD PTR [eax+16]
  0000f	8b 49 0c	 mov	 ecx, DWORD PTR [ecx+12]
  00012	8b 49 18	 mov	 ecx, DWORD PTR [ecx+24]
  00015	e8 00 00 00 00	 call	 ?FindVertex@BT_QuadMap@@QAEGGG@Z ; BT_QuadMap::FindVertex
; Line 116
  0001a	5d		 pop	 ebp
  0001b	c3		 ret	 0
?BT_RTTMS_FindVertex@@YAGPAXGG@Z ENDP			; BT_RTTMS_FindVertex
_TEXT	ENDS
; Function compile flags: /Ogtp
;	COMDAT ?BT_RTTMS_UnlockSectorVertexData@@YAXPAX@Z
_TEXT	SEGMENT
_RTTMSStructInternals$1$ = -24				; size = 4
_EndVertex$1$ = -20					; size = 4
_LODLevelID$1$ = -16					; size = 4
_SectorID$1$ = -12					; size = 4
_StartVertex$1$ = -8					; size = 4
_Vertices$1$ = -4					; size = 4
_StructPtr$ = 8						; size = 4
?BT_RTTMS_UnlockSectorVertexData@@YAXPAX@Z PROC		; BT_RTTMS_UnlockSectorVertexData, COMDAT
; File D:\DEV\GameGuruConverter - reduced\GameGuru Core\Dark Basic Public Shared\Dark Basic Pro SDK\DarkSDKMore\BlitzTerrain\rttms.cpp
; Line 84
  00000	55		 push	 ebp
  00001	8b ec		 mov	 ebp, esp
  00003	83 ec 18	 sub	 esp, 24			; 00000018H
; Line 87
  00006	8b 4d 08	 mov	 ecx, DWORD PTR _StructPtr$[ebp]
  00009	53		 push	 ebx
  0000a	8b 59 10	 mov	 ebx, DWORD PTR [ecx+16]
  0000d	89 5d e8	 mov	 DWORD PTR _RTTMSStructInternals$1$[ebp], ebx
; Line 90
  00010	8b 43 0c	 mov	 eax, DWORD PTR [ebx+12]
  00013	c6 80 81 00 00
	00 00		 mov	 BYTE PTR [eax+129], 0
; Line 94
  0001a	80 79 08 01	 cmp	 BYTE PTR [ecx+8], 1
  0001e	75 66		 jne	 SHORT $LN7@BT_RTTMS_U
; Line 95
  00020	8b 41 04	 mov	 eax, DWORD PTR [ecx+4]
  00023	0f b7 51 0c	 movzx	 edx, WORD PTR [ecx+12]
  00027	56		 push	 esi
  00028	89 45 fc	 mov	 DWORD PTR _Vertices$1$[ebp], eax
; Line 37
  0002b	be 01 00 00 00	 mov	 esi, 1
; Line 95
  00030	0f b7 41 0a	 movzx	 eax, WORD PTR [ecx+10]
  00034	57		 push	 edi
  00035	8b 3b		 mov	 edi, DWORD PTR [ebx]
  00037	89 45 f8	 mov	 DWORD PTR _StartVertex$1$[ebp], eax
  0003a	8b 43 08	 mov	 eax, DWORD PTR [ebx+8]
  0003d	89 45 f4	 mov	 DWORD PTR _SectorID$1$[ebp], eax
  00040	8b 43 04	 mov	 eax, DWORD PTR [ebx+4]
  00043	89 55 ec	 mov	 DWORD PTR _EndVertex$1$[ebp], edx
  00046	89 45 f0	 mov	 DWORD PTR _LODLevelID$1$[ebp], eax
; Line 37
  00049	39 34 bd 00 00
	00 00		 cmp	 DWORD PTR ?BT_RTTMS_UpdateHandlerCount@@3PAKA[edi*4], esi
  00050	72 32		 jb	 SHORT $LN18@BT_RTTMS_U
  00052	8b 5d fc	 mov	 ebx, DWORD PTR _Vertices$1$[ebp]
$LL8@BT_RTTMS_U:
; Line 38
  00055	8b 04 bd 00 00
	00 00		 mov	 eax, DWORD PTR ?BT_RTTMS_UpdateHandlers@@3PAPAP6AXKKKGGPAM@ZA[edi*4]
  0005c	53		 push	 ebx
  0005d	52		 push	 edx
  0005e	ff 75 f8	 push	 DWORD PTR _StartVertex$1$[ebp]
  00061	8b 44 b0 fc	 mov	 eax, DWORD PTR [eax+esi*4-4]
  00065	ff 75 f4	 push	 DWORD PTR _SectorID$1$[ebp]
  00068	ff 75 f0	 push	 DWORD PTR _LODLevelID$1$[ebp]
  0006b	57		 push	 edi
  0006c	ff d0		 call	 eax
  0006e	8b 55 ec	 mov	 edx, DWORD PTR _EndVertex$1$[ebp]
  00071	46		 inc	 esi
  00072	83 c4 18	 add	 esp, 24			; 00000018H
  00075	3b 34 bd 00 00
	00 00		 cmp	 esi, DWORD PTR ?BT_RTTMS_UpdateHandlerCount@@3PAKA[edi*4]
  0007c	76 d7		 jbe	 SHORT $LL8@BT_RTTMS_U
  0007e	8b 5d e8	 mov	 ebx, DWORD PTR _RTTMSStructInternals$1$[ebp]
  00081	8b 4d 08	 mov	 ecx, DWORD PTR _StructPtr$[ebp]
$LN18@BT_RTTMS_U:
  00084	5f		 pop	 edi
  00085	5e		 pop	 esi
$LN7@BT_RTTMS_U:
; Line 99
  00086	ff 71 04	 push	 DWORD PTR [ecx+4]
  00089	e8 00 00 00 00	 call	 _free
  0008e	83 c4 04	 add	 esp, 4
; Line 102
  00091	80 7b 10 01	 cmp	 BYTE PTR [ebx+16], 1
  00095	75 0b		 jne	 SHORT $LN3@BT_RTTMS_U
; Line 104
  00097	8b 4b 0c	 mov	 ecx, DWORD PTR [ebx+12]
  0009a	8b 49 18	 mov	 ecx, DWORD PTR [ecx+24]
  0009d	e8 00 00 00 00	 call	 ?DeleteMeshData@BT_QuadMap@@QAEXXZ ; BT_QuadMap::DeleteMeshData
$LN3@BT_RTTMS_U:
  000a2	5b		 pop	 ebx
; Line 106
  000a3	8b e5		 mov	 esp, ebp
  000a5	5d		 pop	 ebp
  000a6	c3		 ret	 0
?BT_RTTMS_UnlockSectorVertexData@@YAXPAX@Z ENDP		; BT_RTTMS_UnlockSectorVertexData
_TEXT	ENDS
; Function compile flags: /Ogtp
;	COMDAT ?BT_RTTMS_LockSectorVertexData@@YAPAXKKK@Z
_TEXT	SEGMENT
_TerrainID$ = 8						; size = 4
_LODLevelID$ = 12					; size = 4
_SectorID$ = 16						; size = 4
?BT_RTTMS_LockSectorVertexData@@YAPAXKKK@Z PROC		; BT_RTTMS_LockSectorVertexData, COMDAT
; File D:\DEV\GameGuruConverter - reduced\GameGuru Core\Dark Basic Public Shared\Dark Basic Pro SDK\DarkSDKMore\BlitzTerrain\rttms.cpp
; Line 55
  00000	55		 push	 ebp
  00001	8b ec		 mov	 ebp, esp
  00003	56		 push	 esi
; Line 57
  00004	8b 75 08	 mov	 esi, DWORD PTR _TerrainID$[ebp]
  00007	57		 push	 edi
  00008	56		 push	 esi
  00009	e8 00 00 00 00	 call	 ?BT_Intern_TerrainExist@@YA_NK@Z ; BT_Intern_TerrainExist
  0000e	83 c4 04	 add	 esp, 4
  00011	84 c0		 test	 al, al
  00013	74 70		 je	 SHORT $LN8@BT_RTTMS_L
; Line 59
  00015	6b d6 74	 imul	 edx, esi, 116
; Line 60
  00018	80 ba 08 00 00
	00 00		 cmp	 BYTE PTR ?BT_Main@@3Us_BT_main@@A[edx+8], 0
  0001f	74 64		 je	 SHORT $LN8@BT_RTTMS_L
; Line 62
  00021	0f b6 82 32 00
	00 00		 movzx	 eax, BYTE PTR ?BT_Main@@3Us_BT_main@@A[edx+50]
  00028	8b 4d 0c	 mov	 ecx, DWORD PTR _LODLevelID$[ebp]
  0002b	3b c8		 cmp	 ecx, eax
  0002d	73 56		 jae	 SHORT $LN8@BT_RTTMS_L
; Line 64
  0002f	8b b2 44 00 00
	00		 mov	 esi, DWORD PTR ?BT_Main@@3Us_BT_main@@A[edx+68]
  00035	8d 0c c9	 lea	 ecx, DWORD PTR [ecx+ecx*8]
  00038	8b 7d 10	 mov	 edi, DWORD PTR _SectorID$[ebp]
  0003b	0f b7 44 8e 0a	 movzx	 eax, WORD PTR [esi+ecx*4+10]
  00040	3b f8		 cmp	 edi, eax
  00042	73 41		 jae	 SHORT $LN8@BT_RTTMS_L
; Line 66
  00044	8b 44 8e 10	 mov	 eax, DWORD PTR [esi+ecx*4+16]
  00048	69 ff 94 00 00
	00		 imul	 edi, edi, 148
  0004e	80 bc 38 81 00
	00 00 01	 cmp	 BYTE PTR [eax+edi+129], 1
  00056	53		 push	 ebx
  00057	8b b4 38 84 00
	00 00		 mov	 esi, DWORD PTR [eax+edi+132]
  0005e	8d 1c 38	 lea	 ebx, DWORD PTR [eax+edi]
  00061	74 1b		 je	 SHORT $LN18@BT_RTTMS_L
; Line 73
  00063	c6 83 81 00 00
	00 01		 mov	 BYTE PTR [ebx+129], 1
; Line 76
  0006a	8b 92 44 00 00
	00		 mov	 edx, DWORD PTR ?BT_Main@@3Us_BT_main@@A[edx+68]
  00070	56		 push	 esi
  00071	8b 4c 8a 10	 mov	 ecx, DWORD PTR [edx+ecx*4+16]
  00075	8b 4c 39 18	 mov	 ecx, DWORD PTR [ecx+edi+24]
  00079	e8 00 00 00 00	 call	 ?FillMeshData@BT_QuadMap@@QAEXPAUBT_RTTMS_STRUCT@@@Z ; BT_QuadMap::FillMeshData
$LN18@BT_RTTMS_L:
; Line 79
  0007e	5b		 pop	 ebx
  0007f	5f		 pop	 edi
  00080	8b c6		 mov	 eax, esi
; Line 80
  00082	5e		 pop	 esi
  00083	5d		 pop	 ebp
  00084	c3		 ret	 0
$LN8@BT_RTTMS_L:
  00085	5f		 pop	 edi
; Line 65
  00086	33 c0		 xor	 eax, eax
; Line 80
  00088	5e		 pop	 esi
  00089	5d		 pop	 ebp
  0008a	c3		 ret	 0
?BT_RTTMS_LockSectorVertexData@@YAPAXKKK@Z ENDP		; BT_RTTMS_LockSectorVertexData
_TEXT	ENDS
; Function compile flags: /Ogtp
;	COMDAT ?BT_RTTMS_DeleteUpdateHandlers@@YAXK@Z
_TEXT	SEGMENT
_TerrainID$ = 8						; size = 4
?BT_RTTMS_DeleteUpdateHandlers@@YAXK@Z PROC		; BT_RTTMS_DeleteUpdateHandlers, COMDAT
; File D:\DEV\GameGuruConverter - reduced\GameGuru Core\Dark Basic Public Shared\Dark Basic Pro SDK\DarkSDKMore\BlitzTerrain\rttms.cpp
; Line 43
  00000	55		 push	 ebp
  00001	8b ec		 mov	 ebp, esp
  00003	56		 push	 esi
; Line 46
  00004	8b 75 08	 mov	 esi, DWORD PTR _TerrainID$[ebp]
  00007	83 3c b5 00 00
	00 00 00	 cmp	 DWORD PTR ?BT_RTTMS_UpdateHandlerCount@@3PAKA[esi*4], 0
  0000f	74 25		 je	 SHORT $LN2@BT_RTTMS_D
; Line 47
  00011	ff 34 b5 00 00
	00 00		 push	 DWORD PTR ?BT_RTTMS_UpdateHandlers@@3PAPAP6AXKKKGGPAM@ZA[esi*4]
  00018	e8 00 00 00 00	 call	 _free
  0001d	83 c4 04	 add	 esp, 4
; Line 48
  00020	c7 04 b5 00 00
	00 00 00 00 00
	00		 mov	 DWORD PTR ?BT_RTTMS_UpdateHandlers@@3PAPAP6AXKKKGGPAM@ZA[esi*4], 0
; Line 49
  0002b	c7 04 b5 00 00
	00 00 00 00 00
	00		 mov	 DWORD PTR ?BT_RTTMS_UpdateHandlerCount@@3PAKA[esi*4], 0
$LN2@BT_RTTMS_D:
  00036	5e		 pop	 esi
; Line 52
  00037	5d		 pop	 ebp
  00038	c3		 ret	 0
?BT_RTTMS_DeleteUpdateHandlers@@YAXK@Z ENDP		; BT_RTTMS_DeleteUpdateHandlers
_TEXT	ENDS
; Function compile flags: /Ogtp
;	COMDAT ?BT_RTTMS_AddUpdateHandler@@YAXKP6AXKKKGGPAM@Z@Z
_TEXT	SEGMENT
_TerrainID$ = 8						; size = 4
_UpdateHandler$ = 12					; size = 4
?BT_RTTMS_AddUpdateHandler@@YAXKP6AXKKKGGPAM@Z@Z PROC	; BT_RTTMS_AddUpdateHandler, COMDAT
; File D:\DEV\GameGuruConverter - reduced\GameGuru Core\Dark Basic Public Shared\Dark Basic Pro SDK\DarkSDKMore\BlitzTerrain\rttms.cpp
; Line 12
  00000	55		 push	 ebp
  00001	8b ec		 mov	 ebp, esp
  00003	56		 push	 esi
; Line 15
  00004	8b 75 08	 mov	 esi, DWORD PTR _TerrainID$[ebp]
  00007	8b 04 b5 00 00
	00 00		 mov	 eax, DWORD PTR ?BT_RTTMS_UpdateHandlerCount@@3PAKA[esi*4]
; Line 18
  0000e	8b 0c b5 00 00
	00 00		 mov	 ecx, DWORD PTR ?BT_RTTMS_UpdateHandlers@@3PAPAP6AXKKKGGPAM@ZA[esi*4]
  00015	40		 inc	 eax
  00016	89 04 b5 00 00
	00 00		 mov	 DWORD PTR ?BT_RTTMS_UpdateHandlerCount@@3PAKA[esi*4], eax
  0001d	c1 e0 02	 shl	 eax, 2
  00020	50		 push	 eax
  00021	85 c9		 test	 ecx, ecx
  00023	75 0a		 jne	 SHORT $LN2@BT_RTTMS_A
; Line 19
  00025	e8 00 00 00 00	 call	 _malloc
  0002a	83 c4 04	 add	 esp, 4
; Line 22
  0002d	eb 09		 jmp	 SHORT $LN11@BT_RTTMS_A
$LN2@BT_RTTMS_A:
; Line 23
  0002f	51		 push	 ecx
  00030	e8 00 00 00 00	 call	 _realloc
  00035	83 c4 08	 add	 esp, 8
$LN11@BT_RTTMS_A:
; Line 29
  00038	89 04 b5 00 00
	00 00		 mov	 DWORD PTR ?BT_RTTMS_UpdateHandlers@@3PAPAP6AXKKKGGPAM@ZA[esi*4], eax
  0003f	85 c0		 test	 eax, eax
  00041	75 0a		 jne	 SHORT $LN5@BT_RTTMS_A
  00043	6a 1b		 push	 27			; 0000001bH
  00045	e8 00 00 00 00	 call	 ?BT_Intern_Error@@YAXH@Z ; BT_Intern_Error
  0004a	83 c4 04	 add	 esp, 4
$LN5@BT_RTTMS_A:
  0004d	8b 14 b5 00 00
	00 00		 mov	 edx, DWORD PTR ?BT_RTTMS_UpdateHandlerCount@@3PAKA[esi*4]
  00054	8b 0c b5 00 00
	00 00		 mov	 ecx, DWORD PTR ?BT_RTTMS_UpdateHandlers@@3PAPAP6AXKKKGGPAM@ZA[esi*4]
  0005b	8b 45 0c	 mov	 eax, DWORD PTR _UpdateHandler$[ebp]
  0005e	5e		 pop	 esi
  0005f	89 44 91 fc	 mov	 DWORD PTR [ecx+edx*4-4], eax
; Line 31
  00063	5d		 pop	 ebp
  00064	c3		 ret	 0
?BT_RTTMS_AddUpdateHandler@@YAXKP6AXKKKGGPAM@Z@Z ENDP	; BT_RTTMS_AddUpdateHandler
_TEXT	ENDS
; Function compile flags: /Ogtp
;	COMDAT ___use_char_max
_TEXT	SEGMENT
___use_char_max PROC					; COMDAT
; File C:\Program Files (x86)\Windows Kits\10\Include\10.0.10150.0\ucrt\locale.h
; Line 66
  00000	a1 00 00 00 00	 mov	 eax, DWORD PTR ___do_unsigned_char_lconv_initialization
; Line 67
  00005	c3		 ret	 0
___use_char_max ENDP
_TEXT	ENDS
END
